; ModuleID = 'source-C-CXX/36/1044.c'
source_filename = "source-C-CXX/36/1044.c"
target datalayout = "e-m:e-p270:32:32-p271:32:32-p272:64:64-i64:64-f80:128-n8:16:32:64-S128"
target triple = "x86_64-pc-linux-gnu"

@.str = private unnamed_addr constant [3 x i8] c"%d\00", align 1
@.str.1 = private unnamed_addr constant [3 x i8] c"%s\00", align 1
@.str.2 = private unnamed_addr constant [4 x i8] c"%c\0A\00", align 1
@str = private unnamed_addr constant [3 x i8] c"no\00", align 1

; Function Attrs: nofree nounwind sspstrong uwtable
define dso_local i32 @main() local_unnamed_addr #0 {
  %1 = alloca i32, align 4
  %2 = alloca [100000 x i8], align 16
  %3 = alloca [26 x i32], align 16
  %4 = bitcast [26 x i32]* %3 to i8*
  %5 = bitcast i32* %1 to i8*
  call void @llvm.lifetime.start.p0i8(i64 4, i8* nonnull %5) #6
  %6 = getelementptr inbounds [100000 x i8], [100000 x i8]* %2, i64 0, i64 0
  call void @llvm.lifetime.start.p0i8(i64 100000, i8* nonnull %6) #6
  call void @llvm.lifetime.start.p0i8(i64 104, i8* nonnull %4) #6
  call void @llvm.memset.p0i8.i64(i8* noundef nonnull align 16 dereferenceable(100) %4, i8 0, i64 100, i1 false)
  %7 = call i32 (i8*, ...) @__isoc99_scanf(i8* getelementptr inbounds ([3 x i8], [3 x i8]* @.str, i64 0, i64 0), i32* nonnull %1)
  %8 = load i32, i32* %1, align 4, !tbaa !5
  %9 = icmp sgt i32 %8, 0
  br i1 %9, label %10, label %82

10:                                               ; preds = %0, %78
  %11 = phi i32 [ %79, %78 ], [ 0, %0 ]
  %12 = call i32 (i8*, ...) @__isoc99_scanf(i8* getelementptr inbounds ([3 x i8], [3 x i8]* @.str.1, i64 0, i64 0), i8* nonnull %6)
  %13 = call i64 @strlen(i8* noundef nonnull %6) #7
  %14 = trunc i64 %13 to i32
  %15 = icmp sgt i32 %14, 0
  br i1 %15, label %16, label %78

16:                                               ; preds = %10
  %17 = and i64 %13, 4294967295
  %18 = and i64 %13, 1
  %19 = icmp eq i64 %17, 1
  br i1 %19, label %22, label %20

20:                                               ; preds = %16
  %21 = sub nsw i64 %17, %18
  br label %38

22:                                               ; preds = %38, %16
  %23 = phi i64 [ 0, %16 ], [ %56, %38 ]
  %24 = icmp eq i64 %18, 0
  br i1 %24, label %33, label %25

25:                                               ; preds = %22
  %26 = getelementptr inbounds [100000 x i8], [100000 x i8]* %2, i64 0, i64 %23
  %27 = load i8, i8* %26, align 1, !tbaa !9
  %28 = sext i8 %27 to i64
  %29 = add nsw i64 %28, -97
  %30 = getelementptr inbounds [26 x i32], [26 x i32]* %3, i64 0, i64 %29
  %31 = load i32, i32* %30, align 4, !tbaa !5
  %32 = add nsw i32 %31, 1
  store i32 %32, i32* %30, align 4, !tbaa !5
  br label %33

33:                                               ; preds = %22, %25
  br i1 %15, label %34, label %78

34:                                               ; preds = %33
  %35 = add i64 %13, 4294967295
  %36 = and i64 %35, 4294967295
  %37 = and i64 %13, 4294967295
  br label %59

38:                                               ; preds = %38, %20
  %39 = phi i64 [ 0, %20 ], [ %56, %38 ]
  %40 = phi i64 [ %21, %20 ], [ %57, %38 ]
  %41 = getelementptr inbounds [100000 x i8], [100000 x i8]* %2, i64 0, i64 %39
  %42 = load i8, i8* %41, align 2, !tbaa !9
  %43 = sext i8 %42 to i64
  %44 = add nsw i64 %43, -97
  %45 = getelementptr inbounds [26 x i32], [26 x i32]* %3, i64 0, i64 %44
  %46 = load i32, i32* %45, align 4, !tbaa !5
  %47 = add nsw i32 %46, 1
  store i32 %47, i32* %45, align 4, !tbaa !5
  %48 = or i64 %39, 1
  %49 = getelementptr inbounds [100000 x i8], [100000 x i8]* %2, i64 0, i64 %48
  %50 = load i8, i8* %49, align 1, !tbaa !9
  %51 = sext i8 %50 to i64
  %52 = add nsw i64 %51, -97
  %53 = getelementptr inbounds [26 x i32], [26 x i32]* %3, i64 0, i64 %52
  %54 = load i32, i32* %53, align 4, !tbaa !5
  %55 = add nsw i32 %54, 1
  store i32 %55, i32* %53, align 4, !tbaa !5
  %56 = add nuw nsw i64 %39, 2
  %57 = add i64 %40, -2
  %58 = icmp eq i64 %57, 0
  br i1 %58, label %22, label %38, !llvm.loop !10

59:                                               ; preds = %34, %75
  %60 = phi i64 [ 0, %34 ], [ %76, %75 ]
  %61 = getelementptr inbounds [100000 x i8], [100000 x i8]* %2, i64 0, i64 %60
  %62 = load i8, i8* %61, align 1, !tbaa !9
  %63 = sext i8 %62 to i64
  %64 = add nsw i64 %63, -97
  %65 = getelementptr inbounds [26 x i32], [26 x i32]* %3, i64 0, i64 %64
  %66 = load i32, i32* %65, align 4, !tbaa !5
  %67 = icmp eq i32 %66, 1
  br i1 %67, label %68, label %71

68:                                               ; preds = %59
  %69 = sext i8 %62 to i32
  %70 = call i32 (i8*, ...) @printf(i8* nonnull dereferenceable(1) getelementptr inbounds ([4 x i8], [4 x i8]* @.str.2, i64 0, i64 0), i32 %69)
  br label %78

71:                                               ; preds = %59
  %72 = icmp eq i64 %60, %36
  br i1 %72, label %73, label %75

73:                                               ; preds = %71
  %74 = call i32 @puts(i8* nonnull dereferenceable(1) getelementptr inbounds ([3 x i8], [3 x i8]* @str, i64 0, i64 0))
  br label %75

75:                                               ; preds = %71, %73
  %76 = add nuw nsw i64 %60, 1
  %77 = icmp eq i64 %76, %37
  br i1 %77, label %78, label %59, !llvm.loop !12

78:                                               ; preds = %75, %10, %33, %68
  call void @llvm.memset.p0i8.i64(i8* noundef nonnull align 16 dereferenceable(100) %4, i8 0, i64 100, i1 false)
  %79 = add nuw nsw i32 %11, 1
  %80 = load i32, i32* %1, align 4, !tbaa !5
  %81 = icmp slt i32 %79, %80
  br i1 %81, label %10, label %82, !llvm.loop !13

82:                                               ; preds = %78, %0
  call void @llvm.lifetime.end.p0i8(i64 104, i8* nonnull %4) #6
  call void @llvm.lifetime.end.p0i8(i64 100000, i8* nonnull %6) #6
  call void @llvm.lifetime.end.p0i8(i64 4, i8* nonnull %5) #6
  ret i32 0
}

; Function Attrs: argmemonly mustprogress nofree nosync nounwind willreturn
declare void @llvm.lifetime.start.p0i8(i64 immarg, i8* nocapture) #1

; Function Attrs: nofree nounwind
declare noundef i32 @__isoc99_scanf(i8* nocapture noundef readonly, ...) local_unnamed_addr #2

; Function Attrs: argmemonly mustprogress nofree nounwind readonly willreturn
declare i64 @strlen(i8* nocapture) local_unnamed_addr #3

; Function Attrs: nofree nounwind
declare noundef i32 @printf(i8* nocapture noundef readonly, ...) local_unnamed_addr #2

; Function Attrs: argmemonly mustprogress nofree nosync nounwind willreturn
declare void @llvm.lifetime.end.p0i8(i64 immarg, i8* nocapture) #1

; Function Attrs: nofree nounwind
declare noundef i32 @puts(i8* nocapture noundef readonly) local_unnamed_addr #4

; Function Attrs: argmemonly nofree nounwind willreturn writeonly
declare void @llvm.memset.p0i8.i64(i8* nocapture writeonly, i8, i64, i1 immarg) #5


!llvm.module.flags = !{!0, !1, !2, !3}
!llvm.ident = !{!4}

!0 = !{i32 1, !"wchar_size", i32 4}
!1 = !{i32 7, !"PIC Level", i32 2}
!2 = !{i32 7, !"PIE Level", i32 2}
!3 = !{i32 7, !"uwtable", i32 1}
!4 = !{!"clang version 13.0.0"}
!5 = !{!6, !6, i64 0}
!6 = !{!"int", !7, i64 0}
!7 = !{!"omnipotent char", !8, i64 0}
!8 = !{!"Simple C/C++ TBAA"}
!9 = !{!7, !7, i64 0}
!10 = distinct !{!10, !11}
!11 = !{!"llvm.loop.mustprogress"}
!12 = distinct !{!12, !11}
!13 = distinct !{!13, !11}
